; Function Attrs: mustprogress nounwind uwtable
define internal void @_ZN5faiss12_GLOBAL__N_124AQInvertedListScannerLUTILb0ELNS_17AdditiveQuantizer13Search_type_tE5EED2Ev(ptr nocapture noundef nonnull align 8 dereferenceable(148) %0) unnamed_addr #0 align 2 personality ptr @__gxx_personality_v0 {
  store ptr getelementptr inbounds ({ [11 x ptr] }, ptr @_ZTVN5faiss12_GLOBAL__N_124AQInvertedListScannerLUTILb0ELNS_17AdditiveQuantizer13Search_type_tE5EEE, i64 0, i32 0, i64 2), ptr %0, align 8
  %2 = getelementptr inbounds i8, ptr %0, i64 120
  %3 = load ptr, ptr %2, align 8
  %.not.i.i.i = icmp eq ptr %3, null
  br i1 %.not.i.i.i, label %_ZNSt6vectorIfSaIfEED2Ev.exit, label %4

4:                                                ; preds = %1
  tail call void @_ZdlPv(ptr noundef nonnull %3) #23
  br label %_ZNSt6vectorIfSaIfEED2Ev.exit

_ZNSt6vectorIfSaIfEED2Ev.exit:                    ; preds = %1, %4
  %5 = getelementptr inbounds i8, ptr %0, i64 96
  %6 = load ptr, ptr %5, align 8
  %.not.i.i.i1 = icmp eq ptr %6, null
  br i1 %.not.i.i.i1, label %_ZNSt6vectorIfSaIfEED2Ev.exit2, label %7

7:                                                ; preds = %_ZNSt6vectorIfSaIfEED2Ev.exit
  tail call void @_ZdlPv(ptr noundef nonnull %6) #23
  br label %_ZNSt6vectorIfSaIfEED2Ev.exit2

_ZNSt6vectorIfSaIfEED2Ev.exit2:                   ; preds = %_ZNSt6vectorIfSaIfEED2Ev.exit, %7
  store ptr getelementptr inbounds ({ [11 x ptr] }, ptr @_ZTVN5faiss12_GLOBAL__N_121AQInvertedListScannerE, i64 0, i32 0, i64 2), ptr %0, align 8
  %8 = getelementptr inbounds i8, ptr %0, i64 56
  %9 = load ptr, ptr %8, align 8
  %.not.i.i.i.i = icmp eq ptr %9, null
  br i1 %.not.i.i.i.i, label %_ZN5faiss12_GLOBAL__N_121AQInvertedListScannerD2Ev.exit, label %10

10:                                               ; preds = %_ZNSt6vectorIfSaIfEED2Ev.exit2
  tail call void @_ZdlPv(ptr noundef nonnull %9) #23
  br label %_ZN5faiss12_GLOBAL__N_121AQInvertedListScannerD2Ev.exit

_ZN5faiss12_GLOBAL__N_121AQInvertedListScannerD2Ev.exit: ; preds = %_ZNSt6vectorIfSaIfEED2Ev.exit2, %10
  ret void
}